; Function Attrs: nounwind uwtable
define internal range(i32 -22, 1) i32 @config_props(ptr noundef captures(none) %0) #1 {
  %2 = load ptr, ptr %0, align 8, !tbaa !36
  %3 = getelementptr inbounds nuw i8, ptr %2, i64 72
  %4 = load ptr, ptr %3, align 8, !tbaa !4
  %5 = getelementptr inbounds nuw i8, ptr %4, i64 8
  %6 = load i32, ptr %5, align 8, !tbaa !29
  %7 = getelementptr inbounds nuw i8, ptr %4, i64 12
  %8 = load i32, ptr %7, align 4, !tbaa !26
  %9 = tail call i32 @av_image_check_size(i32 noundef %6, i32 noundef %8, i32 noundef 0, ptr noundef %2) #7
  %10 = icmp slt i32 %9, 0
  br i1 %10, label %21, label %11

11:                                               ; preds = %1
  %12 = load i32, ptr %5, align 8, !tbaa !29
  %13 = getelementptr inbounds nuw i8, ptr %0, i64 40
  store i32 %12, ptr %13, align 8, !tbaa !76
  %14 = load i32, ptr %7, align 4, !tbaa !26
  %15 = getelementptr inbounds nuw i8, ptr %0, i64 44
  store i32 %14, ptr %15, align 4, !tbaa !77
  %16 = getelementptr inbounds nuw i8, ptr %0, i64 96
  %17 = getelementptr inbounds nuw i8, ptr %4, i64 16
  %18 = load i64, ptr %17, align 8
  %.sroa.01.0.insert.insert.i = tail call i64 @llvm.fshl.i64(i64 %18, i64 %18, i64 32)
  store i64 %.sroa.01.0.insert.insert.i, ptr %16, align 8
  %19 = getelementptr inbounds nuw i8, ptr %0, i64 264
  %20 = load i64, ptr %17, align 8
  store i64 %20, ptr %19, align 8
  br label %21

21:                                               ; preds = %1, %11
  %.0 = phi i32 [ 0, %11 ], [ -22, %1 ]
  ret i32 %.0
}